target datalayout = "e-m:e-p270:32:32-p271:32:32-p272:64:64-i64:64-i128:128-f80:128-n8:16:32:64-S128"
target triple = "x86_64-pc-linux-gnu"

%"class.llvm::SmallVectorBase" = type { ptr, i32, i32 }
%"class.llvm::SmallPtrSetImplBase.base" = type <{ ptr, ptr, i32, i32, i32 }>
%"class.llvm::SmallVectorImpl.288" = type { %"class.llvm::SmallVectorTemplateBase.289" }
%"class.llvm::SmallVectorTemplateBase.289" = type { %"class.llvm::SmallVectorTemplateCommon.290" }
%"class.llvm::SmallVectorTemplateCommon.290" = type { %"class.llvm::SmallVectorBase" }
%"struct.(anonymous namespace)::MemAccessTy" = type <{ ptr, i32, [4 x i8] }>
%"class.llvm::SmallVector.556" = type { %"class.llvm::SmallVectorImpl.288", %"struct.llvm::SmallVectorStorage.557" }
%"struct.llvm::SmallVectorStorage.557" = type { [32 x i8] }
%"class.llvm::SmallPtrSetImpl.base.593" = type { %"class.llvm::SmallPtrSetImplBase.base" }
%"class.(anonymous namespace)::Immediate" = type { %"class.llvm::details::FixedOrScalableQuantity.base.658", [7 x i8] }
%"class.llvm::details::FixedOrScalableQuantity.base.658" = type <{ i64, i8 }>
%"struct.(anonymous namespace)::Formula" = type { ptr, %"class.(anonymous namespace)::Immediate", i8, i64, %"class.llvm::SmallVector.556", ptr, %"class.(anonymous namespace)::Immediate" }
%"class.(anonymous namespace)::LSRUse" = type { %"class.llvm::DenseSet.659", i32, [4 x i8], %"struct.(anonymous namespace)::MemAccessTy", %"class.llvm::SmallVector.664", %"class.(anonymous namespace)::Immediate", %"class.(anonymous namespace)::Immediate", i8, i8, ptr, %"class.llvm::SmallVector.669", %"class.llvm::SmallPtrSet.674" }
%"class.llvm::DenseSet.659" = type { %"class.llvm::detail::DenseSetImpl.660" }
%"class.llvm::detail::DenseSetImpl.660" = type { %"class.llvm::DenseMap.661" }
%"class.llvm::DenseMap.661" = type <{ ptr, i32, i32, i32, [4 x i8] }>
%"class.llvm::SmallVector.664" = type { %"class.llvm::SmallVectorImpl.665", %"struct.llvm::SmallVectorStorage.668" }
%"class.llvm::SmallVectorImpl.665" = type { %"class.llvm::SmallVectorTemplateBase.666" }
%"class.llvm::SmallVectorTemplateBase.666" = type { %"class.llvm::SmallVectorTemplateCommon.667" }
%"class.llvm::SmallVectorTemplateCommon.667" = type { %"class.llvm::SmallVectorBase" }
%"struct.llvm::SmallVectorStorage.668" = type { [640 x i8] }
%"class.llvm::SmallVector.669" = type { %"class.llvm::SmallVectorImpl.670", %"struct.llvm::SmallVectorStorage.673" }
%"class.llvm::SmallVectorImpl.670" = type { %"class.llvm::SmallVectorTemplateBase.671" }
%"class.llvm::SmallVectorTemplateBase.671" = type { %"class.llvm::SmallVectorTemplateCommon.672" }
%"class.llvm::SmallVectorTemplateCommon.672" = type { %"class.llvm::SmallVectorBase" }
%"struct.llvm::SmallVectorStorage.673" = type { [1344 x i8] }
%"class.llvm::SmallPtrSet.674" = type { %"class.llvm::SmallPtrSetImpl.base.593", [4 x ptr] }

; Function Attrs: mustprogress nounwind uwtable
define linkonce_odr hidden noundef ptr @_ZNK4llvm25SmallVectorTemplateCommonIPKNS_4SCEVEvE10getFirstElEv(ptr noundef nonnull align 8 dereferenceable(16) %0) #1 comdat align 2 {
  %2 = alloca ptr, align 8
  store ptr %0, ptr %2, align 8
  %3 = load ptr, ptr %2, align 8
  %4 = getelementptr inbounds i8, ptr %3, i64 16
  ret ptr %4
}

; Function Attrs: mustprogress nounwind uwtable
define linkonce_odr hidden noundef zeroext i1 @_ZNK4llvm25SmallVectorTemplateCommonIPKNS_4SCEVEvE7isSmallEv(ptr noundef nonnull align 8 dereferenceable(16) %0) #1 comdat align 2 {
  %2 = alloca ptr, align 8
  store ptr %0, ptr %2, align 8
  %3 = load ptr, ptr %2, align 8
  %4 = getelementptr inbounds nuw %"class.llvm::SmallVectorBase", ptr %3, i32 0, i32 0
  %5 = load ptr, ptr %4, align 8
  %6 = call noundef ptr @_ZNK4llvm25SmallVectorTemplateCommonIPKNS_4SCEVEvE10getFirstElEv(ptr noundef nonnull align 8 dereferenceable(16) %3)
  %7 = icmp eq ptr %5, %6
  ret i1 %7
}

; Function Attrs: mustprogress nounwind uwtable
define linkonce_odr hidden void @_ZN4llvm15SmallVectorImplIPKNS_4SCEVEED2Ev(ptr noundef nonnull align 8 dereferenceable(16) %0) unnamed_addr #1 comdat align 2 {
  %2 = alloca ptr, align 8
  store ptr %0, ptr %2, align 8
  %3 = load ptr, ptr %2, align 8
  %4 = call noundef zeroext i1 @_ZNK4llvm25SmallVectorTemplateCommonIPKNS_4SCEVEvE7isSmallEv(ptr noundef nonnull align 8 dereferenceable(16) %3)
  br i1 %4, label %7, label %5

5:                                                ; preds = %1
  %6 = call noundef ptr @_ZN4llvm25SmallVectorTemplateCommonIPKNS_4SCEVEvE5beginEv(ptr noundef nonnull align 8 dereferenceable(16) %3)
  call void @free(ptr noundef %6) #2
  br label %7

7:                                                ; preds = %5, %1
  ret void
}

; Function Attrs: mustprogress nounwind uwtable
define linkonce_odr hidden void @_ZN4llvm23SmallVectorTemplateBaseIPKNS_4SCEVELb1EE13destroy_rangeEPS3_S5_(ptr noundef %0, ptr noundef %1) #1 comdat align 2 {
  %3 = alloca ptr, align 8
  %4 = alloca ptr, align 8
  store ptr %0, ptr %3, align 8
  store ptr %1, ptr %4, align 8
  ret void
}

; Function Attrs: mustprogress nounwind uwtable
define linkonce_odr hidden noundef ptr @_ZN4llvm25SmallVectorTemplateCommonIPKNS_4SCEVEvE3endEv(ptr noundef nonnull align 8 dereferenceable(16) %0) #1 comdat align 2 {
  %2 = alloca ptr, align 8
  store ptr %0, ptr %2, align 8
  %3 = load ptr, ptr %2, align 8
  %4 = call noundef ptr @_ZN4llvm25SmallVectorTemplateCommonIPKNS_4SCEVEvE5beginEv(ptr noundef nonnull align 8 dereferenceable(16) %3)
  %5 = call noundef i64 @_ZNK4llvm15SmallVectorBaseIjE4sizeEv(ptr noundef nonnull align 8 dereferenceable(16) %3)
  %6 = getelementptr inbounds ptr, ptr %4, i64 %5
  ret ptr %6
}

; Function Attrs: mustprogress nounwind uwtable
define linkonce_odr hidden noundef ptr @_ZN4llvm25SmallVectorTemplateCommonIPKNS_4SCEVEvE5beginEv(ptr noundef nonnull align 8 dereferenceable(16) %0) #1 comdat align 2 {
  %2 = alloca ptr, align 8
  store ptr %0, ptr %2, align 8
  %3 = load ptr, ptr %2, align 8
  %4 = getelementptr inbounds nuw %"class.llvm::SmallVectorBase", ptr %3, i32 0, i32 0
  %5 = load ptr, ptr %4, align 8
  ret ptr %5
}

; Function Attrs: mustprogress nounwind uwtable
define linkonce_odr hidden void @_ZN4llvm11SmallVectorIPKNS_4SCEVELj4EED2Ev(ptr noundef nonnull align 8 dereferenceable(48) %0) unnamed_addr #1 comdat align 2 {
  %2 = alloca ptr, align 8
  store ptr %0, ptr %2, align 8
  %3 = load ptr, ptr %2, align 8
  %4 = call noundef ptr @_ZN4llvm25SmallVectorTemplateCommonIPKNS_4SCEVEvE5beginEv(ptr noundef nonnull align 8 dereferenceable(16) %3)
  %5 = call noundef ptr @_ZN4llvm25SmallVectorTemplateCommonIPKNS_4SCEVEvE3endEv(ptr noundef nonnull align 8 dereferenceable(16) %3)
  call void @_ZN4llvm23SmallVectorTemplateBaseIPKNS_4SCEVELb1EE13destroy_rangeEPS3_S5_(ptr noundef %4, ptr noundef %5)
  call void @_ZN4llvm15SmallVectorImplIPKNS_4SCEVEED2Ev(ptr noundef nonnull align 8 dereferenceable(16) %3) #2
  ret void
}

; Function Attrs: mustprogress nounwind uwtable
define internal noundef ptr @_ZN4llvm25SmallVectorTemplateCommonIN12_GLOBAL__N_17FormulaEvE5beginEv(ptr noundef nonnull align 8 dereferenceable(16) %0) #1 align 2 {
  %2 = alloca ptr, align 8
  store ptr %0, ptr %2, align 8
  %3 = load ptr, ptr %2, align 8
  %4 = getelementptr inbounds nuw %"class.llvm::SmallVectorBase", ptr %3, i32 0, i32 0
  %5 = load ptr, ptr %4, align 8
  ret ptr %5
}

; Function Attrs: mustprogress nounwind uwtable
define internal void @_ZN12_GLOBAL__N_17FormulaD2Ev(ptr noundef nonnull align 8 dereferenceable(112) %0) unnamed_addr #1 align 2 {
  %2 = alloca ptr, align 8
  store ptr %0, ptr %2, align 8
  %3 = load ptr, ptr %2, align 8
  %4 = getelementptr inbounds nuw %"struct.(anonymous namespace)::Formula", ptr %3, i32 0, i32 4
  call void @_ZN4llvm11SmallVectorIPKNS_4SCEVELj4EED2Ev(ptr noundef nonnull align 8 dereferenceable(48) %4) #2
  ret void
}

; Function Attrs: mustprogress nounwind uwtable
define internal noundef ptr @_ZN4llvm25SmallVectorTemplateCommonIN12_GLOBAL__N_17FormulaEvE3endEv(ptr noundef nonnull align 8 dereferenceable(16) %0) #1 align 2 {
  %2 = alloca ptr, align 8
  store ptr %0, ptr %2, align 8
  %3 = load ptr, ptr %2, align 8
  %4 = call noundef ptr @_ZN4llvm25SmallVectorTemplateCommonIN12_GLOBAL__N_17FormulaEvE5beginEv(ptr noundef nonnull align 8 dereferenceable(16) %3)
  %5 = call noundef i64 @_ZNK4llvm15SmallVectorBaseIjE4sizeEv(ptr noundef nonnull align 8 dereferenceable(16) %3)
  %6 = getelementptr inbounds %"struct.(anonymous namespace)::Formula", ptr %4, i64 %5
  ret ptr %6
}

; Function Attrs: mustprogress nounwind uwtable
define internal void @_ZN4llvm23SmallVectorTemplateBaseIN12_GLOBAL__N_17FormulaELb0EE8pop_backEv(ptr noundef nonnull align 8 dereferenceable(16) %0) #1 align 2 {
  %2 = alloca ptr, align 8
  store ptr %0, ptr %2, align 8
  %3 = load ptr, ptr %2, align 8
  %4 = call noundef i64 @_ZNK4llvm15SmallVectorBaseIjE4sizeEv(ptr noundef nonnull align 8 dereferenceable(16) %3)
  %5 = sub i64 %4, 1
  call void @_ZN4llvm15SmallVectorBaseIjE8set_sizeEm(ptr noundef nonnull align 8 dereferenceable(16) %3, i64 noundef %5)
  %6 = call noundef ptr @_ZN4llvm25SmallVectorTemplateCommonIN12_GLOBAL__N_17FormulaEvE3endEv(ptr noundef nonnull align 8 dereferenceable(16) %3)
  call void @_ZN12_GLOBAL__N_17FormulaD2Ev(ptr noundef nonnull align 8 dereferenceable(112) %6) #2
  ret void
}

; Function Attrs: mustprogress nounwind uwtable
define internal noundef nonnull align 8 dereferenceable(112) ptr @_ZN4llvm25SmallVectorTemplateCommonIN12_GLOBAL__N_17FormulaEvE4backEv(ptr noundef nonnull align 8 dereferenceable(16) %0) #1 align 2 {
  %2 = alloca ptr, align 8
  store ptr %0, ptr %2, align 8
  %3 = load ptr, ptr %2, align 8
  %4 = call noundef ptr @_ZN4llvm25SmallVectorTemplateCommonIN12_GLOBAL__N_17FormulaEvE3endEv(ptr noundef nonnull align 8 dereferenceable(16) %3)
  %5 = getelementptr inbounds %"struct.(anonymous namespace)::Formula", ptr %4, i64 -1
  ret ptr %5
}

; Function Attrs: mustprogress nounwind uwtable
define internal void @_ZN12_GLOBAL__N_16LSRUse13DeleteFormulaERNS_7FormulaE(ptr noundef nonnull align 8 dereferenceable(2176) %0, ptr noundef nonnull align 8 dereferenceable(112) %1) #1 align 2 {
  %3 = alloca ptr, align 8
  %4 = alloca ptr, align 8
  store ptr %0, ptr %3, align 8
  store ptr %1, ptr %4, align 8
  %5 = load ptr, ptr %3, align 8
  %6 = load ptr, ptr %4, align 8
  %7 = getelementptr inbounds nuw %"class.(anonymous namespace)::LSRUse", ptr %5, i32 0, i32 10
  %8 = call noundef nonnull align 8 dereferenceable(112) ptr @_ZN4llvm25SmallVectorTemplateCommonIN12_GLOBAL__N_17FormulaEvE4backEv(ptr noundef nonnull align 8 dereferenceable(16) %7)
  %9 = icmp ne ptr %6, %8
  br i1 %9, label %10, label %14

10:                                               ; preds = %2
  %11 = load ptr, ptr %4, align 8
  %12 = getelementptr inbounds nuw %"class.(anonymous namespace)::LSRUse", ptr %5, i32 0, i32 10
  %13 = call noundef nonnull align 8 dereferenceable(112) ptr @_ZN4llvm25SmallVectorTemplateCommonIN12_GLOBAL__N_17FormulaEvE4backEv(ptr noundef nonnull align 8 dereferenceable(16) %12)
  call void @_ZSt4swapIN12_GLOBAL__N_17FormulaEENSt9enable_ifIXsr6__and_ISt6__not_ISt15__is_tuple_likeIT_EESt21is_move_constructibleIS5_ESt18is_move_assignableIS5_EEE5valueEvE4typeERS5_SE_(ptr noundef nonnull align 8 dereferenceable(112) %11, ptr noundef nonnull align 8 dereferenceable(112) %13)
  br label %14

14:                                               ; preds = %10, %2
  %15 = getelementptr inbounds nuw %"class.(anonymous namespace)::LSRUse", ptr %5, i32 0, i32 10
  call void @_ZN4llvm23SmallVectorTemplateBaseIN12_GLOBAL__N_17FormulaELb0EE8pop_backEv(ptr noundef nonnull align 8 dereferenceable(16) %15)
  ret void
}