; Function Attrs: mustprogress nounwind uwtable
define internal fastcc void @_ZN12_GLOBAL__N_16LSRUse13DeleteFormulaERNS_7FormulaE(ptr noundef nonnull align 8 dereferenceable(2176) %0, ptr noundef nonnull align 8 dereferenceable(112) %1) unnamed_addr #0 align 2 {
  %3 = getelementptr inbounds nuw i8, ptr %0, i64 752
  %.val.i.i = load ptr, ptr %3, align 8
  %4 = tail call noundef i64 @_ZNK4llvm15SmallVectorBaseIjE4sizeEv(ptr noundef nonnull align 8 dereferenceable(16) %3) #21
  %5 = getelementptr inbounds %"struct.(anonymous namespace)::Formula", ptr %.val.i.i, i64 %4
  %6 = getelementptr inbounds i8, ptr %5, i64 -112
  %.not = icmp eq ptr %1, %6
  br i1 %.not, label %11, label %7

7:                                                ; preds = %2
  %.val.i.i3 = load ptr, ptr %3, align 8
  %8 = tail call noundef i64 @_ZNK4llvm15SmallVectorBaseIjE4sizeEv(ptr noundef nonnull align 8 dereferenceable(16) %3) #21
  %9 = getelementptr inbounds %"struct.(anonymous namespace)::Formula", ptr %.val.i.i3, i64 %8
  %10 = getelementptr inbounds i8, ptr %9, i64 -112
  tail call fastcc void @_ZSt4swapIN12_GLOBAL__N_17FormulaEENSt9enable_ifIXsr6__and_ISt6__not_ISt15__is_tuple_likeIT_EESt21is_move_constructibleIS5_ESt18is_move_assignableIS5_EEE5valueEvE4typeERS5_SE_(ptr noundef nonnull align 8 dereferenceable(112) %1, ptr noundef nonnull align 8 dereferenceable(112) %10)
  br label %11

11:                                               ; preds = %7, %2
  %12 = tail call noundef i64 @_ZNK4llvm15SmallVectorBaseIjE4sizeEv(ptr noundef nonnull align 8 dereferenceable(16) %3) #21
  %13 = add i64 %12, -1
  tail call void @_ZN4llvm15SmallVectorBaseIjE8set_sizeEm(ptr noundef nonnull align 8 dereferenceable(16) %3, i64 noundef %13) #21
  %.val.i.i4 = load ptr, ptr %3, align 8
  %14 = tail call noundef i64 @_ZNK4llvm15SmallVectorBaseIjE4sizeEv(ptr noundef nonnull align 8 dereferenceable(16) %3) #21
  %15 = getelementptr inbounds %"struct.(anonymous namespace)::Formula", ptr %.val.i.i4, i64 %14
  %16 = getelementptr inbounds nuw i8, ptr %15, i64 40
  %17 = tail call noundef i64 @_ZNK4llvm15SmallVectorBaseIjE4sizeEv(ptr noundef nonnull align 8 dereferenceable(16) %16) #21
  %18 = load ptr, ptr %16, align 8
  %19 = getelementptr inbounds i8, ptr %15, i64 56
  %20 = icmp eq ptr %18, %19
  br i1 %20, label %_ZN4llvm23SmallVectorTemplateBaseIN12_GLOBAL__N_17FormulaELb0EE8pop_backEv.exit, label %21

21:                                               ; preds = %11
  tail call void @free(ptr noundef %18) #21
  br label %_ZN4llvm23SmallVectorTemplateBaseIN12_GLOBAL__N_17FormulaELb0EE8pop_backEv.exit

_ZN4llvm23SmallVectorTemplateBaseIN12_GLOBAL__N_17FormulaELb0EE8pop_backEv.exit: ; preds = %11, %21
  ret void
}